target datalayout = "e-m:e-p270:32:32-p271:32:32-p272:64:64-i64:64-i128:128-f80:128-n8:16:32:64-S128"
target triple = "x86_64-pc-linux-gnu"

%"class.std::__cxx11::basic_string" = type { %"struct.std::__cxx11::basic_string<char>::_Alloc_hider", i64, %union.anon }
%"struct.std::__cxx11::basic_string<char>::_Alloc_hider" = type { ptr }
%union.anon = type { i64, [8 x i8] }
%"class.mu::ParserError" = type { %"class.std::__cxx11::basic_string", %"class.std::__cxx11::basic_string", %"class.std::__cxx11::basic_string", i32, i32, ptr }
%class.ParserTag = type { ptr, %"class.mu::ParserError", ptr, i8, i32 }

@_ZTIN2mu11ParserErrorE = linkonce_odr constant { ptr, ptr } { ptr getelementptr inbounds (ptr, ptr @_ZTVN10__cxxabiv117__class_type_infoE, i64 2), ptr @_ZTSN2mu11ParserErrorE }, comdat, align 8
@_ZL11s_tmpOutBuf = internal global [2048 x i8] zeroinitializer, align 16
@.str.5 = private unnamed_addr constant [3 x i8] c"%s\00", align 1
@.str.6 = private unnamed_addr constant [1 x i8] zeroinitializer, align 1

; Function Attrs: mustprogress nounwind uwtable
define available_externally noundef ptr @_ZNKSt7__cxx1112basic_stringIcSt11char_traitsIcESaIcEE7_M_dataEv(ptr noundef nonnull align 8 dereferenceable(32) %0) #5 align 2 {
  %2 = alloca ptr, align 8
  store ptr %0, ptr %2, align 8, !tbaa !9
  %3 = load ptr, ptr %2, align 8
  %4 = getelementptr inbounds nuw %"class.std::__cxx11::basic_string", ptr %3, i32 0, i32 0
  %5 = getelementptr inbounds nuw %"struct.std::__cxx11::basic_string<char>::_Alloc_hider", ptr %4, i32 0, i32 0
  %6 = load ptr, ptr %5, align 8, !tbaa !23
  ret ptr %6
}

; Function Attrs: mustprogress nounwind uwtable
define available_externally noundef ptr @_ZNKSt7__cxx1112basic_stringIcSt11char_traitsIcESaIcEE5c_strEv(ptr noundef nonnull align 8 dereferenceable(32) %0) #5 align 2 {
  %2 = alloca ptr, align 8
  store ptr %0, ptr %2, align 8, !tbaa !9
  %3 = load ptr, ptr %2, align 8
  %4 = call noundef ptr @_ZNKSt7__cxx1112basic_stringIcSt11char_traitsIcESaIcEE7_M_dataEv(ptr noundef nonnull align 8 dereferenceable(32) %3)
  ret ptr %4
}

; Function Attrs: mustprogress nounwind uwtable
define linkonce_odr noundef i64 @_Z8count_ofIA2048_cEmRKT_(ptr noundef nonnull align 1 dereferenceable(2048) %0) #5 comdat {
  %2 = alloca ptr, align 8
  store ptr %0, ptr %2, align 8, !tbaa !11
  ret i64 2048
}

; Function Attrs: inlinehint mustprogress nounwind uwtable
define linkonce_odr noundef ptr @_Z8AsParserPv(ptr noundef %0) #10 comdat {
  %2 = alloca ptr, align 8
  store ptr %0, ptr %2, align 8, !tbaa !32
  %3 = load ptr, ptr %2, align 8, !tbaa !32
  %4 = getelementptr inbounds nuw %class.ParserTag, ptr %3, i32 0, i32 0
  %5 = load ptr, ptr %4, align 8, !tbaa !47
  ret ptr %5
}

; Function Attrs: mustprogress uwtable
define ptr @mupGetExpr(ptr noundef %0) #6 personality ptr @__gxx_personality_v0 {
  %2 = alloca ptr, align 8
  %3 = alloca ptr, align 8
  %4 = alloca ptr, align 8
  %5 = alloca ptr, align 8
  %6 = alloca i32, align 4
  %7 = alloca ptr, align 8
  %8 = alloca %"class.mu::ParserError", align 8
  %9 = alloca ptr, align 8
  %10 = alloca ptr, align 8
  store ptr %0, ptr %3, align 8, !tbaa !32
  call void @llvm.lifetime.start.p0(i64 8, ptr %4) #3
  %11 = load ptr, ptr %3, align 8, !tbaa !32
  %12 = call noundef ptr @_Z8AsParserPv(ptr noundef %11)
  store ptr %12, ptr %4, align 8, !tbaa !33
  %13 = call noundef i64 @_Z8count_ofIA2048_cEmRKT_(ptr noundef nonnull align 1 dereferenceable(2048) @_ZL11s_tmpOutBuf)
  %14 = load ptr, ptr %4, align 8, !tbaa !33
  %15 = invoke noundef nonnull align 8 dereferenceable(32) ptr @_ZNK2mu10ParserBase7GetExprB5cxx11Ev(ptr noundef nonnull align 8 dereferenceable(596) %14)
          to label %16 unwind label %19

16:                                               ; preds = %1
  %17 = call noundef ptr @_ZNKSt7__cxx1112basic_stringIcSt11char_traitsIcESaIcEE5c_strEv(ptr noundef nonnull align 8 dereferenceable(32) %15) #3
  %18 = call i32 (ptr, i64, ptr, ...) @snprintf(ptr noundef @_ZL11s_tmpOutBuf, i64 noundef %13, ptr noundef @.str.5, ptr noundef %17) #3
  store ptr @_ZL11s_tmpOutBuf, ptr %2, align 8
  call void @llvm.lifetime.end.p0(i64 8, ptr %4) #3
  br label %92

19:                                               ; preds = %1
  %20 = landingpad { ptr, i32 }
          catch ptr @_ZTIN2mu11ParserErrorE
          catch ptr null
  %21 = extractvalue { ptr, i32 } %20, 0
  store ptr %21, ptr %5, align 8
  %22 = extractvalue { ptr, i32 } %20, 1
  store i32 %22, ptr %6, align 4
  call void @llvm.lifetime.end.p0(i64 8, ptr %4) #3
  br label %23

23:                                               ; preds = %19
  %24 = load i32, ptr %6, align 4
  %25 = call i32 @llvm.eh.typeid.for.p0(ptr @_ZTIN2mu11ParserErrorE) #3
  %26 = icmp eq i32 %24, %25
  br i1 %26, label %27, label %48

27:                                               ; preds = %23
  call void @llvm.lifetime.start.p0(i64 8, ptr %9) #3
  %28 = load ptr, ptr %5, align 8
  %29 = call ptr @__cxa_begin_catch(ptr %28) #3
  store ptr %29, ptr %9, align 8
  call void @llvm.lifetime.start.p0(i64 8, ptr %10) #3
  %30 = load ptr, ptr %3, align 8, !tbaa !32
  store ptr %30, ptr %10, align 8, !tbaa !35
  %31 = load ptr, ptr %9, align 8, !tbaa !37
  %32 = load ptr, ptr %10, align 8, !tbaa !35
  %33 = getelementptr inbounds nuw %class.ParserTag, ptr %32, i32 0, i32 1
  %34 = invoke noundef nonnull align 8 dereferenceable(112) ptr @_ZN2mu11ParserErroraSERKS0_(ptr noundef nonnull align 8 dereferenceable(112) %33, ptr noundef nonnull align 8 dereferenceable(112) %31)
          to label %35 unwind label %85

35:                                               ; preds = %27
  %36 = load ptr, ptr %10, align 8, !tbaa !35
  %37 = getelementptr inbounds nuw %class.ParserTag, ptr %36, i32 0, i32 3
  store i8 1, ptr %37, align 8, !tbaa !39
  %38 = load ptr, ptr %10, align 8, !tbaa !35
  %39 = getelementptr inbounds nuw %class.ParserTag, ptr %38, i32 0, i32 2
  %40 = load ptr, ptr %39, align 8, !tbaa !46
  %41 = icmp ne ptr %40, null
  br i1 %41, label %42, label %89

42:                                               ; preds = %35
  %43 = load ptr, ptr %10, align 8, !tbaa !35
  %44 = getelementptr inbounds nuw %class.ParserTag, ptr %43, i32 0, i32 2
  %45 = load ptr, ptr %44, align 8, !tbaa !46
  %46 = load ptr, ptr %3, align 8, !tbaa !32
  invoke void %45(ptr noundef %46)
          to label %47 unwind label %85

47:                                               ; preds = %42
  br label %89

48:                                               ; preds = %23
  %49 = load ptr, ptr %5, align 8
  %50 = call ptr @__cxa_begin_catch(ptr %49) #3
  call void @llvm.lifetime.start.p0(i64 8, ptr %7) #3
  %51 = load ptr, ptr %3, align 8, !tbaa !32
  store ptr %51, ptr %7, align 8, !tbaa !35
  call void @llvm.lifetime.start.p0(i64 112, ptr %8) #3
  invoke void @_ZN2mu11ParserErrorC1ENS_11EErrorCodesE(ptr noundef nonnull align 8 dereferenceable(112) %8, i32 noundef 39)
          to label %52 unwind label %69

52:                                               ; preds = %48
  %53 = load ptr, ptr %7, align 8, !tbaa !35
  %54 = getelementptr inbounds nuw %class.ParserTag, ptr %53, i32 0, i32 1
  %55 = invoke noundef nonnull align 8 dereferenceable(112) ptr @_ZN2mu11ParserErroraSERKS0_(ptr noundef nonnull align 8 dereferenceable(112) %54, ptr noundef nonnull align 8 dereferenceable(112) %8)
          to label %56 unwind label %73

56:                                               ; preds = %52
  call void @_ZN2mu11ParserErrorD1Ev(ptr noundef nonnull align 8 dereferenceable(112) %8) #3
  call void @llvm.lifetime.end.p0(i64 112, ptr %8) #3
  %57 = load ptr, ptr %7, align 8, !tbaa !35
  %58 = getelementptr inbounds nuw %class.ParserTag, ptr %57, i32 0, i32 3
  store i8 1, ptr %58, align 8, !tbaa !39
  %59 = load ptr, ptr %7, align 8, !tbaa !35
  %60 = getelementptr inbounds nuw %class.ParserTag, ptr %59, i32 0, i32 2
  %61 = load ptr, ptr %60, align 8, !tbaa !46
  %62 = icmp ne ptr %61, null
  br i1 %62, label %63, label %82

63:                                               ; preds = %56
  %64 = load ptr, ptr %7, align 8, !tbaa !35
  %65 = getelementptr inbounds nuw %class.ParserTag, ptr %64, i32 0, i32 2
  %66 = load ptr, ptr %65, align 8, !tbaa !46
  %67 = load ptr, ptr %3, align 8, !tbaa !32
  invoke void %66(ptr noundef %67)
          to label %68 unwind label %78

68:                                               ; preds = %63
  br label %82

69:                                               ; preds = %48
  %70 = landingpad { ptr, i32 }
          cleanup
  %71 = extractvalue { ptr, i32 } %70, 0
  store ptr %71, ptr %5, align 8
  %72 = extractvalue { ptr, i32 } %70, 1
  store i32 %72, ptr %6, align 4
  br label %77

73:                                               ; preds = %52
  %74 = landingpad { ptr, i32 }
          cleanup
  %75 = extractvalue { ptr, i32 } %74, 0
  store ptr %75, ptr %5, align 8
  %76 = extractvalue { ptr, i32 } %74, 1
  store i32 %76, ptr %6, align 4
  call void @_ZN2mu11ParserErrorD1Ev(ptr noundef nonnull align 8 dereferenceable(112) %8) #3
  br label %77

77:                                               ; preds = %73, %69
  call void @llvm.lifetime.end.p0(i64 112, ptr %8) #3
  br label %83

78:                                               ; preds = %63
  %79 = landingpad { ptr, i32 }
          cleanup
  %80 = extractvalue { ptr, i32 } %79, 0
  store ptr %80, ptr %5, align 8
  %81 = extractvalue { ptr, i32 } %79, 1
  store i32 %81, ptr %6, align 4
  br label %83

82:                                               ; preds = %68, %56
  call void @llvm.lifetime.end.p0(i64 8, ptr %7) #3
  call void @__cxa_end_catch()
  br label %90

83:                                               ; preds = %78, %77
  call void @llvm.lifetime.end.p0(i64 8, ptr %7) #3
  invoke void @__cxa_end_catch()
          to label %84 unwind label %99

84:                                               ; preds = %83
  br label %94

85:                                               ; preds = %42, %27
  %86 = landingpad { ptr, i32 }
          cleanup
  %87 = extractvalue { ptr, i32 } %86, 0
  store ptr %87, ptr %5, align 8
  %88 = extractvalue { ptr, i32 } %86, 1
  store i32 %88, ptr %6, align 4
  call void @llvm.lifetime.end.p0(i64 8, ptr %10) #3
  invoke void @__cxa_end_catch()
          to label %91 unwind label %99

89:                                               ; preds = %47, %35
  call void @llvm.lifetime.end.p0(i64 8, ptr %10) #3
  call void @__cxa_end_catch()
  call void @llvm.lifetime.end.p0(i64 8, ptr %9) #3
  br label %90

90:                                               ; preds = %89, %82
  store ptr @.str.6, ptr %2, align 8
  br label %92

91:                                               ; preds = %85
  call void @llvm.lifetime.end.p0(i64 8, ptr %9) #3
  br label %94

92:                                               ; preds = %90, %16
  %93 = load ptr, ptr %2, align 8
  ret ptr %93

94:                                               ; preds = %91, %84
  %95 = load ptr, ptr %5, align 8
  %96 = load i32, ptr %6, align 4
  %97 = insertvalue { ptr, i32 } poison, ptr %95, 0
  %98 = insertvalue { ptr, i32 } %97, i32 %96, 1
  resume { ptr, i32 } %98

99:                                               ; preds = %85, %83
  %100 = landingpad { ptr, i32 }
          catch ptr null
  %101 = extractvalue { ptr, i32 } %100, 0
  call void @__clang_call_terminate(ptr %101) #19
  unreachable
}