; Function Attrs: mustprogress uwtable
define noundef ptr @mupGetExpr(ptr noundef %0) local_unnamed_addr #11 personality ptr @__gxx_personality_v0 {
  %2 = alloca %"class.mu::ParserError", align 8
  %3 = load ptr, ptr %0, align 8, !tbaa !4
  %4 = invoke noundef nonnull align 8 dereferenceable(32) ptr @_ZNK2mu10ParserBase7GetExprB5cxx11Ev(ptr noundef nonnull align 8 dereferenceable(596) %3)
          to label %5 unwind label %8

5:                                                ; preds = %1
  %6 = load ptr, ptr %4, align 8, !tbaa !24
  %7 = tail call i32 (ptr, i64, ptr, ...) @snprintf(ptr noundef nonnull dereferenceable(1) @_ZL11s_tmpOutBuf, i64 noundef 2048, ptr noundef nonnull @.str.5, ptr noundef %6) #23
  br label %44

8:                                                ; preds = %1
  %9 = landingpad { ptr, i32 }
          catch ptr @_ZTIN2mu11ParserErrorE
          catch ptr null
  %10 = extractvalue { ptr, i32 } %9, 0
  %11 = extractvalue { ptr, i32 } %9, 1
  %12 = tail call i32 @llvm.eh.typeid.for.p0(ptr nonnull @_ZTIN2mu11ParserErrorE) #23
  %13 = icmp eq i32 %11, %12
  %14 = tail call ptr @__cxa_begin_catch(ptr %10) #23
  br i1 %13, label %15, label %23

15:                                               ; preds = %8
  %16 = getelementptr inbounds nuw i8, ptr %0, i64 8
  %17 = invoke noundef nonnull align 8 dereferenceable(112) ptr @_ZN2mu11ParserErroraSERKS0_(ptr noundef nonnull align 8 dereferenceable(112) %16, ptr noundef nonnull align 8 dereferenceable(112) %14)
          to label %18 unwind label %41

18:                                               ; preds = %15
  %19 = getelementptr inbounds nuw i8, ptr %0, i64 128
  store i8 1, ptr %19, align 8, !tbaa !19
  %20 = getelementptr inbounds nuw i8, ptr %0, i64 120
  %21 = load ptr, ptr %20, align 8, !tbaa !20
  %.not29 = icmp eq ptr %21, null
  br i1 %.not29, label %43, label %22

22:                                               ; preds = %18
  invoke void %21(ptr noundef nonnull %0)
          to label %43 unwind label %41

23:                                               ; preds = %8
  call void @llvm.lifetime.start.p0(i64 112, ptr nonnull %2) #23
  invoke void @_ZN2mu11ParserErrorC1ENS_11EErrorCodesE(ptr noundef nonnull align 8 dereferenceable(112) %2, i32 noundef 39)
          to label %24 unwind label %32

24:                                               ; preds = %23
  %25 = getelementptr inbounds nuw i8, ptr %0, i64 8
  %26 = invoke noundef nonnull align 8 dereferenceable(112) ptr @_ZN2mu11ParserErroraSERKS0_(ptr noundef nonnull align 8 dereferenceable(112) %25, ptr noundef nonnull align 8 dereferenceable(112) %2)
          to label %27 unwind label %34

27:                                               ; preds = %24
  call void @_ZN2mu11ParserErrorD1Ev(ptr noundef nonnull align 8 dereferenceable(112) %2) #23
  call void @llvm.lifetime.end.p0(i64 112, ptr nonnull %2) #23
  %28 = getelementptr inbounds nuw i8, ptr %0, i64 128
  store i8 1, ptr %28, align 8, !tbaa !19
  %29 = getelementptr inbounds nuw i8, ptr %0, i64 120
  %30 = load ptr, ptr %29, align 8, !tbaa !20
  %.not = icmp eq ptr %30, null
  br i1 %.not, label %39, label %31

31:                                               ; preds = %27
  invoke void %30(ptr noundef nonnull %0)
          to label %39 unwind label %37

32:                                               ; preds = %23
  %33 = landingpad { ptr, i32 }
          cleanup
  br label %36

34:                                               ; preds = %24
  %35 = landingpad { ptr, i32 }
          cleanup
  call void @_ZN2mu11ParserErrorD1Ev(ptr noundef nonnull align 8 dereferenceable(112) %2) #23
  br label %36

36:                                               ; preds = %34, %32
  %.pn = phi { ptr, i32 } [ %35, %34 ], [ %33, %32 ]
  call void @llvm.lifetime.end.p0(i64 112, ptr nonnull %2) #23
  br label %40

37:                                               ; preds = %31
  %38 = landingpad { ptr, i32 }
          cleanup
  br label %40

39:                                               ; preds = %31, %27
  call void @__cxa_end_catch()
  br label %44

40:                                               ; preds = %37, %36
  %.pn27 = phi { ptr, i32 } [ %38, %37 ], [ %.pn, %36 ]
  invoke void @__cxa_end_catch()
          to label %45 unwind label %46

41:                                               ; preds = %22, %15
  %42 = landingpad { ptr, i32 }
          cleanup
  invoke void @__cxa_end_catch()
          to label %45 unwind label %46

43:                                               ; preds = %22, %18
  tail call void @__cxa_end_catch()
  br label %44

44:                                               ; preds = %39, %43, %5
  %.0 = phi ptr [ @_ZL11s_tmpOutBuf, %5 ], [ @.str.6, %43 ], [ @.str.6, %39 ]
  ret ptr %.0

45:                                               ; preds = %41, %40
  %.pn30 = phi { ptr, i32 } [ %.pn27, %40 ], [ %42, %41 ]
  resume { ptr, i32 } %.pn30

46:                                               ; preds = %41, %40
  %47 = landingpad { ptr, i32 }
          catch ptr null
  %48 = extractvalue { ptr, i32 } %47, 0
  call void @__clang_call_terminate(ptr %48) #24
  unreachable
}